target datalayout = "e-m:e-p270:32:32-p271:32:32-p272:64:64-i64:64-i128:128-f80:128-n8:16:32:64-S128"
target triple = "x86_64-pc-linux-gnu"

%struct.RangeCoder = type { i32, i32, i32, i32, [256 x i8], [256 x i8], ptr, ptr, ptr, i32 }

; Function Attrs: inlinehint nounwind uwtable
define internal void @refill(ptr noundef %0) #6 {
  %2 = alloca ptr, align 8
  store ptr %0, ptr %2, align 8, !tbaa !41
  %3 = load ptr, ptr %2, align 8, !tbaa !41
  %4 = getelementptr inbounds nuw %struct.RangeCoder, ptr %3, i32 0, i32 1
  %5 = load i32, ptr %4, align 4, !tbaa !191
  %6 = shl i32 %5, 8
  store i32 %6, ptr %4, align 4, !tbaa !191
  %7 = load ptr, ptr %2, align 8, !tbaa !41
  %8 = getelementptr inbounds nuw %struct.RangeCoder, ptr %7, i32 0, i32 0
  %9 = load i32, ptr %8, align 8, !tbaa !192
  %10 = shl i32 %9, 8
  store i32 %10, ptr %8, align 8, !tbaa !192
  %11 = load ptr, ptr %2, align 8, !tbaa !41
  %12 = getelementptr inbounds nuw %struct.RangeCoder, ptr %11, i32 0, i32 7
  %13 = load ptr, ptr %12, align 8, !tbaa !127
  %14 = load ptr, ptr %2, align 8, !tbaa !41
  %15 = getelementptr inbounds nuw %struct.RangeCoder, ptr %14, i32 0, i32 8
  %16 = load ptr, ptr %15, align 8, !tbaa !198
  %17 = icmp ult ptr %13, %16
  br i1 %17, label %18, label %33

18:                                               ; preds = %1
  %19 = load ptr, ptr %2, align 8, !tbaa !41
  %20 = getelementptr inbounds nuw %struct.RangeCoder, ptr %19, i32 0, i32 7
  %21 = load ptr, ptr %20, align 8, !tbaa !127
  %22 = getelementptr inbounds i8, ptr %21, i64 0
  %23 = load i8, ptr %22, align 1, !tbaa !73
  %24 = zext i8 %23 to i32
  %25 = load ptr, ptr %2, align 8, !tbaa !41
  %26 = getelementptr inbounds nuw %struct.RangeCoder, ptr %25, i32 0, i32 0
  %27 = load i32, ptr %26, align 8, !tbaa !192
  %28 = add nsw i32 %27, %24
  store i32 %28, ptr %26, align 8, !tbaa !192
  %29 = load ptr, ptr %2, align 8, !tbaa !41
  %30 = getelementptr inbounds nuw %struct.RangeCoder, ptr %29, i32 0, i32 7
  %31 = load ptr, ptr %30, align 8, !tbaa !127
  %32 = getelementptr inbounds nuw i8, ptr %31, i32 1
  store ptr %32, ptr %30, align 8, !tbaa !127
  br label %38

33:                                               ; preds = %1
  %34 = load ptr, ptr %2, align 8, !tbaa !41
  %35 = getelementptr inbounds nuw %struct.RangeCoder, ptr %34, i32 0, i32 9
  %36 = load i32, ptr %35, align 8, !tbaa !199
  %37 = add nsw i32 %36, 1
  store i32 %37, ptr %35, align 8, !tbaa !199
  br label %38

38:                                               ; preds = %33, %18
  ret void
}

; Function Attrs: inlinehint nounwind uwtable
define internal i32 @get_rac(ptr noundef %0, ptr noundef %1) #6 {
  %3 = alloca i32, align 4
  %4 = alloca ptr, align 8
  %5 = alloca ptr, align 8
  %6 = alloca i32, align 4
  %7 = alloca i32, align 4
  store ptr %0, ptr %4, align 8, !tbaa !41
  store ptr %1, ptr %5, align 8, !tbaa !23
  call void @llvm.lifetime.start.p0(i64 4, ptr %6) #10
  %8 = load ptr, ptr %4, align 8, !tbaa !41
  %9 = getelementptr inbounds nuw %struct.RangeCoder, ptr %8, i32 0, i32 1
  %10 = load i32, ptr %9, align 4, !tbaa !191
  %11 = load ptr, ptr %5, align 8, !tbaa !23
  %12 = load i8, ptr %11, align 1, !tbaa !73
  %13 = zext i8 %12 to i32
  %14 = mul nsw i32 %10, %13
  %15 = ashr i32 %14, 8
  store i32 %15, ptr %6, align 4, !tbaa !25
  %16 = load i32, ptr %6, align 4, !tbaa !25
  %17 = load ptr, ptr %4, align 8, !tbaa !41
  %18 = getelementptr inbounds nuw %struct.RangeCoder, ptr %17, i32 0, i32 1
  %19 = load i32, ptr %18, align 4, !tbaa !191
  %20 = sub nsw i32 %19, %16
  store i32 %20, ptr %18, align 4, !tbaa !191
  %21 = load ptr, ptr %4, align 8, !tbaa !41
  %22 = getelementptr inbounds nuw %struct.RangeCoder, ptr %21, i32 0, i32 0
  %23 = load i32, ptr %22, align 8, !tbaa !192
  %24 = load ptr, ptr %4, align 8, !tbaa !41
  %25 = getelementptr inbounds nuw %struct.RangeCoder, ptr %24, i32 0, i32 1
  %26 = load i32, ptr %25, align 4, !tbaa !191
  %27 = icmp slt i32 %23, %26
  br i1 %27, label %28, label %44

28:                                               ; preds = %2
  %29 = load ptr, ptr %4, align 8, !tbaa !41
  %30 = getelementptr inbounds nuw %struct.RangeCoder, ptr %29, i32 0, i32 4
  %31 = load ptr, ptr %5, align 8, !tbaa !23
  %32 = load i8, ptr %31, align 1, !tbaa !73
  %33 = zext i8 %32 to i64
  %34 = getelementptr inbounds nuw [256 x i8], ptr %30, i64 0, i64 %33
  %35 = load i8, ptr %34, align 1, !tbaa !73
  %36 = load ptr, ptr %5, align 8, !tbaa !23
  store i8 %35, ptr %36, align 1, !tbaa !73
  %37 = load ptr, ptr %4, align 8, !tbaa !41
  %38 = getelementptr inbounds nuw %struct.RangeCoder, ptr %37, i32 0, i32 1
  %39 = load i32, ptr %38, align 4, !tbaa !191
  %40 = icmp slt i32 %39, 256
  br i1 %40, label %41, label %43

41:                                               ; preds = %28
  %42 = load ptr, ptr %4, align 8, !tbaa !41
  call void @refill(ptr noundef %42)
  br label %43

43:                                               ; preds = %41, %28
  store i32 0, ptr %3, align 4
  store i32 1, ptr %7, align 4
  br label %70

44:                                               ; preds = %2
  %45 = load ptr, ptr %4, align 8, !tbaa !41
  %46 = getelementptr inbounds nuw %struct.RangeCoder, ptr %45, i32 0, i32 1
  %47 = load i32, ptr %46, align 4, !tbaa !191
  %48 = load ptr, ptr %4, align 8, !tbaa !41
  %49 = getelementptr inbounds nuw %struct.RangeCoder, ptr %48, i32 0, i32 0
  %50 = load i32, ptr %49, align 8, !tbaa !192
  %51 = sub nsw i32 %50, %47
  store i32 %51, ptr %49, align 8, !tbaa !192
  %52 = load ptr, ptr %4, align 8, !tbaa !41
  %53 = getelementptr inbounds nuw %struct.RangeCoder, ptr %52, i32 0, i32 5
  %54 = load ptr, ptr %5, align 8, !tbaa !23
  %55 = load i8, ptr %54, align 1, !tbaa !73
  %56 = zext i8 %55 to i64
  %57 = getelementptr inbounds nuw [256 x i8], ptr %53, i64 0, i64 %56
  %58 = load i8, ptr %57, align 1, !tbaa !73
  %59 = load ptr, ptr %5, align 8, !tbaa !23
  store i8 %58, ptr %59, align 1, !tbaa !73
  %60 = load i32, ptr %6, align 4, !tbaa !25
  %61 = load ptr, ptr %4, align 8, !tbaa !41
  %62 = getelementptr inbounds nuw %struct.RangeCoder, ptr %61, i32 0, i32 1
  store i32 %60, ptr %62, align 4, !tbaa !191
  %63 = load ptr, ptr %4, align 8, !tbaa !41
  %64 = getelementptr inbounds nuw %struct.RangeCoder, ptr %63, i32 0, i32 1
  %65 = load i32, ptr %64, align 4, !tbaa !191
  %66 = icmp slt i32 %65, 256
  br i1 %66, label %67, label %69

67:                                               ; preds = %44
  %68 = load ptr, ptr %4, align 8, !tbaa !41
  call void @refill(ptr noundef %68)
  br label %69

69:                                               ; preds = %67, %44
  store i32 1, ptr %3, align 4
  store i32 1, ptr %7, align 4
  br label %70

70:                                               ; preds = %69, %43
  call void @llvm.lifetime.end.p0(i64 4, ptr %6) #10
  %71 = load i32, ptr %3, align 4
  ret i32 %71
}

; Function Attrs: inlinehint nounwind uwtable
define internal i32 @get_symbol2(ptr noundef %0, ptr noundef %1, i32 noundef %2) #6 {
  %4 = alloca ptr, align 8
  %5 = alloca ptr, align 8
  %6 = alloca i32, align 4
  %7 = alloca i32, align 4
  %8 = alloca i32, align 4
  %9 = alloca i32, align 4
  store ptr %0, ptr %4, align 8, !tbaa !41
  store ptr %1, ptr %5, align 8, !tbaa !23
  store i32 %2, ptr %6, align 4, !tbaa !25
  call void @llvm.lifetime.start.p0(i64 4, ptr %7) #10
  %10 = load i32, ptr %6, align 4, !tbaa !25
  %11 = icmp sge i32 %10, 0
  br i1 %11, label %12, label %15

12:                                               ; preds = %3
  %13 = load i32, ptr %6, align 4, !tbaa !25
  %14 = shl i32 1, %13
  br label %16

15:                                               ; preds = %3
  br label %16

16:                                               ; preds = %15, %12
  %17 = phi i32 [ %14, %12 ], [ 1, %15 ]
  store i32 %17, ptr %7, align 4, !tbaa !25
  call void @llvm.lifetime.start.p0(i64 4, ptr %8) #10
  store i32 0, ptr %8, align 4, !tbaa !25
  br label %18

18:                                               ; preds = %44, %16
  %19 = load i32, ptr %6, align 4, !tbaa !25
  %20 = icmp slt i32 %19, 28
  br i1 %20, label %21, label %30

21:                                               ; preds = %18
  %22 = load ptr, ptr %4, align 8, !tbaa !41
  %23 = load ptr, ptr %5, align 8, !tbaa !23
  %24 = getelementptr inbounds i8, ptr %23, i64 4
  %25 = load i32, ptr %6, align 4, !tbaa !25
  %26 = sext i32 %25 to i64
  %27 = getelementptr inbounds i8, ptr %24, i64 %26
  %28 = call i32 @get_rac(ptr noundef %22, ptr noundef %27)
  %29 = icmp ne i32 %28, 0
  br label %30

30:                                               ; preds = %21, %18
  %31 = phi i1 [ false, %18 ], [ %29, %21 ]
  br i1 %31, label %32, label %45

32:                                               ; preds = %30
  %33 = load i32, ptr %7, align 4, !tbaa !25
  %34 = load i32, ptr %8, align 4, !tbaa !25
  %35 = add nsw i32 %34, %33
  store i32 %35, ptr %8, align 4, !tbaa !25
  %36 = load i32, ptr %6, align 4, !tbaa !25
  %37 = add nsw i32 %36, 1
  store i32 %37, ptr %6, align 4, !tbaa !25
  %38 = load i32, ptr %6, align 4, !tbaa !25
  %39 = icmp sgt i32 %38, 0
  br i1 %39, label %40, label %44

40:                                               ; preds = %32
  %41 = load i32, ptr %7, align 4, !tbaa !25
  %42 = load i32, ptr %7, align 4, !tbaa !25
  %43 = add nsw i32 %42, %41
  store i32 %43, ptr %7, align 4, !tbaa !25
  br label %44

44:                                               ; preds = %40, %32
  br label %18, !llvm.loop !214

45:                                               ; preds = %30
  call void @llvm.lifetime.start.p0(i64 4, ptr %9) #10
  %46 = load i32, ptr %6, align 4, !tbaa !25
  %47 = sub nsw i32 %46, 1
  store i32 %47, ptr %9, align 4, !tbaa !25
  br label %48

48:                                               ; preds = %65, %45
  %49 = load i32, ptr %9, align 4, !tbaa !25
  %50 = icmp sge i32 %49, 0
  br i1 %50, label %52, label %51

51:                                               ; preds = %48
  call void @llvm.lifetime.end.p0(i64 4, ptr %9) #10
  br label %68

52:                                               ; preds = %48
  %53 = load ptr, ptr %4, align 8, !tbaa !41
  %54 = load ptr, ptr %5, align 8, !tbaa !23
  %55 = getelementptr inbounds i8, ptr %54, i64 31
  %56 = load i32, ptr %9, align 4, !tbaa !25
  %57 = sext i32 %56 to i64
  %58 = sub i64 0, %57
  %59 = getelementptr inbounds i8, ptr %55, i64 %58
  %60 = call i32 @get_rac(ptr noundef %53, ptr noundef %59)
  %61 = load i32, ptr %9, align 4, !tbaa !25
  %62 = shl i32 %60, %61
  %63 = load i32, ptr %8, align 4, !tbaa !25
  %64 = add nsw i32 %63, %62
  store i32 %64, ptr %8, align 4, !tbaa !25
  br label %65

65:                                               ; preds = %52
  %66 = load i32, ptr %9, align 4, !tbaa !25
  %67 = add nsw i32 %66, -1
  store i32 %67, ptr %9, align 4, !tbaa !25
  br label %48, !llvm.loop !215

68:                                               ; preds = %51
  %69 = load i32, ptr %8, align 4, !tbaa !25
  call void @llvm.lifetime.end.p0(i64 4, ptr %8) #10
  call void @llvm.lifetime.end.p0(i64 4, ptr %7) #10
  ret i32 %69
}