; Function Attrs: inlinehint nofree norecurse nosync nounwind memory(read, argmem: readwrite, inaccessiblemem: none) uwtable
define internal fastcc i32 @get_symbol2(ptr noundef captures(none) %0, ptr noundef captures(none) %1, i32 noundef range(i32 -4, 276) %2) unnamed_addr #6 {
  %4 = icmp slt i32 %2, 28
  br i1 %4, label %.lr.ph, label %.lr.ph39

.lr.ph:                                           ; preds = %3
  %5 = icmp sgt i32 %2, -1
  %6 = shl nuw nsw i32 1, %2
  %7 = select i1 %5, i32 %6, i32 1
  %8 = getelementptr inbounds nuw i8, ptr %1, i64 4
  %9 = getelementptr inbounds nuw i8, ptr %0, i64 4
  %10 = getelementptr inbounds nuw i8, ptr %0, i64 272
  %11 = getelementptr inbounds nuw i8, ptr %0, i64 536
  %12 = getelementptr inbounds nuw i8, ptr %0, i64 544
  %13 = getelementptr inbounds nuw i8, ptr %0, i64 552
  %14 = sext i32 %2 to i64
  %.pre = load i32, ptr %9, align 4, !tbaa !48
  br label %15

15:                                               ; preds = %.lr.ph, %get_rac.exit
  %16 = phi i32 [ %.pre, %.lr.ph ], [ %71, %get_rac.exit ]
  %indvars.iv = phi i64 [ %14, %.lr.ph ], [ %indvars.iv.next, %get_rac.exit ]
  %.02035 = phi i32 [ 0, %.lr.ph ], [ %72, %get_rac.exit ]
  %.02134 = phi i32 [ %7, %.lr.ph ], [ %spec.select, %get_rac.exit ]
  %17 = getelementptr inbounds i8, ptr %8, i64 %indvars.iv
  %18 = load i8, ptr %17, align 1, !tbaa !52
  %19 = zext i8 %18 to i32
  %20 = mul nsw i32 %16, %19
  %21 = ashr i32 %20, 8
  %22 = sub nsw i32 %16, %21
  store i32 %22, ptr %9, align 4, !tbaa !48
  %23 = load i32, ptr %0, align 8, !tbaa !49
  %24 = icmp slt i32 %23, %22
  br i1 %24, label %25, label %49

25:                                               ; preds = %15
  %26 = trunc nsw i64 %indvars.iv to i32
  %27 = getelementptr inbounds nuw i8, ptr %0, i64 16
  %28 = load i8, ptr %17, align 1, !tbaa !52
  %29 = zext i8 %28 to i64
  %30 = getelementptr inbounds nuw [256 x i8], ptr %27, i64 0, i64 %29
  %31 = load i8, ptr %30, align 1, !tbaa !52
  store i8 %31, ptr %17, align 1, !tbaa !52
  %32 = load i32, ptr %9, align 4, !tbaa !48
  %33 = icmp slt i32 %32, 256
  br i1 %33, label %34, label %.critedge

34:                                               ; preds = %25
  %35 = shl i32 %32, 8
  store i32 %35, ptr %9, align 4, !tbaa !48
  %36 = load i32, ptr %0, align 8, !tbaa !49
  %37 = shl i32 %36, 8
  store i32 %37, ptr %0, align 8, !tbaa !49
  %38 = load ptr, ptr %11, align 8, !tbaa !50
  %39 = load ptr, ptr %12, align 8, !tbaa !51
  %40 = icmp ult ptr %38, %39
  br i1 %40, label %41, label %46

41:                                               ; preds = %34
  %42 = load i8, ptr %38, align 1, !tbaa !52
  %43 = zext i8 %42 to i32
  %44 = or disjoint i32 %37, %43
  store i32 %44, ptr %0, align 8, !tbaa !49
  %45 = getelementptr inbounds nuw i8, ptr %38, i64 1
  store ptr %45, ptr %11, align 8, !tbaa !50
  br label %.critedge

46:                                               ; preds = %34
  %47 = load i32, ptr %13, align 8, !tbaa !53
  %48 = add nsw i32 %47, 1
  store i32 %48, ptr %13, align 8, !tbaa !53
  br label %.critedge

49:                                               ; preds = %15
  %50 = sub nsw i32 %23, %22
  store i32 %50, ptr %0, align 8, !tbaa !49
  %51 = load i8, ptr %17, align 1, !tbaa !52
  %52 = zext i8 %51 to i64
  %53 = getelementptr inbounds nuw [256 x i8], ptr %10, i64 0, i64 %52
  %54 = load i8, ptr %53, align 1, !tbaa !52
  store i8 %54, ptr %17, align 1, !tbaa !52
  store i32 %21, ptr %9, align 4, !tbaa !48
  %55 = icmp slt i32 %21, 256
  br i1 %55, label %56, label %get_rac.exit

56:                                               ; preds = %49
  %57 = and i32 %20, -256
  store i32 %57, ptr %9, align 4, !tbaa !48
  %58 = load i32, ptr %0, align 8, !tbaa !49
  %59 = shl i32 %58, 8
  store i32 %59, ptr %0, align 8, !tbaa !49
  %60 = load ptr, ptr %11, align 8, !tbaa !50
  %61 = load ptr, ptr %12, align 8, !tbaa !51
  %62 = icmp ult ptr %60, %61
  br i1 %62, label %63, label %68

63:                                               ; preds = %56
  %64 = load i8, ptr %60, align 1, !tbaa !52
  %65 = zext i8 %64 to i32
  %66 = or disjoint i32 %59, %65
  store i32 %66, ptr %0, align 8, !tbaa !49
  %67 = getelementptr inbounds nuw i8, ptr %60, i64 1
  store ptr %67, ptr %11, align 8, !tbaa !50
  br label %get_rac.exit

68:                                               ; preds = %56
  %69 = load i32, ptr %13, align 8, !tbaa !53
  %70 = add nsw i32 %69, 1
  store i32 %70, ptr %13, align 8, !tbaa !53
  br label %get_rac.exit

get_rac.exit:                                     ; preds = %68, %63, %49
  %71 = phi i32 [ %57, %68 ], [ %57, %63 ], [ %21, %49 ]
  %72 = add nsw i32 %.02035, %.02134
  %indvars.iv.next = add nsw i64 %indvars.iv, 1
  %73 = icmp sgt i64 %indvars.iv, -1
  %74 = zext i1 %73 to i32
  %spec.select = shl nsw i32 %.02134, %74
  %exitcond.not = icmp eq i64 %indvars.iv.next, 28
  br i1 %exitcond.not, label %.lr.ph39, label %15, !llvm.loop !191

.critedge:                                        ; preds = %46, %41, %25
  %75 = icmp sgt i64 %indvars.iv, 0
  br i1 %75, label %.lr.ph39, label %._crit_edge

.lr.ph39:                                         ; preds = %get_rac.exit, %3, %.critedge
  %.0202955 = phi i32 [ %.02035, %.critedge ], [ 0, %3 ], [ %72, %get_rac.exit ]
  %.0233154 = phi i32 [ %26, %.critedge ], [ %2, %3 ], [ 28, %get_rac.exit ]
  %76 = getelementptr inbounds nuw i8, ptr %1, i64 31
  %77 = getelementptr inbounds nuw i8, ptr %0, i64 4
  %78 = getelementptr inbounds nuw i8, ptr %0, i64 272
  %79 = getelementptr inbounds nuw i8, ptr %0, i64 536
  %80 = getelementptr inbounds nuw i8, ptr %0, i64 544
  %81 = getelementptr inbounds nuw i8, ptr %0, i64 552
  %82 = getelementptr inbounds nuw i8, ptr %0, i64 16
  %83 = zext nneg i32 %.0233154 to i64
  %.pre51 = load i32, ptr %77, align 4, !tbaa !48
  br label %84

._crit_edge:                                      ; preds = %get_rac.exit25, %.critedge
  %.1.lcssa = phi i32 [ %.02035, %.critedge ], [ %142, %get_rac.exit25 ]
  ret i32 %.1.lcssa

84:                                               ; preds = %.lr.ph39, %get_rac.exit25
  %85 = phi i32 [ %.pre51, %.lr.ph39 ], [ %139, %get_rac.exit25 ]
  %indvars.iv48 = phi i64 [ %83, %.lr.ph39 ], [ %indvars.iv.next49, %get_rac.exit25 ]
  %.137 = phi i32 [ %.0202955, %.lr.ph39 ], [ %142, %get_rac.exit25 ]
  %indvars.iv.next49 = add nsw i64 %indvars.iv48, -1
  %86 = sub nsw i64 1, %indvars.iv48
  %87 = getelementptr inbounds i8, ptr %76, i64 %86
  %88 = load i8, ptr %87, align 1, !tbaa !52
  %89 = zext i8 %88 to i32
  %90 = mul nsw i32 %85, %89
  %91 = ashr i32 %90, 8
  %92 = sub nsw i32 %85, %91
  store i32 %92, ptr %77, align 4, !tbaa !48
  %93 = load i32, ptr %0, align 8, !tbaa !49
  %94 = icmp slt i32 %93, %92
  br i1 %94, label %95, label %117

95:                                               ; preds = %84
  %96 = load i8, ptr %87, align 1, !tbaa !52
  %97 = zext i8 %96 to i64
  %98 = getelementptr inbounds nuw [256 x i8], ptr %82, i64 0, i64 %97
  %99 = load i8, ptr %98, align 1, !tbaa !52
  store i8 %99, ptr %87, align 1, !tbaa !52
  %100 = load i32, ptr %77, align 4, !tbaa !48
  %101 = icmp slt i32 %100, 256
  br i1 %101, label %102, label %get_rac.exit25

102:                                              ; preds = %95
  %103 = shl i32 %100, 8
  store i32 %103, ptr %77, align 4, !tbaa !48
  %104 = load i32, ptr %0, align 8, !tbaa !49
  %105 = shl i32 %104, 8
  store i32 %105, ptr %0, align 8, !tbaa !49
  %106 = load ptr, ptr %79, align 8, !tbaa !50
  %107 = load ptr, ptr %80, align 8, !tbaa !51
  %108 = icmp ult ptr %106, %107
  br i1 %108, label %109, label %114

109:                                              ; preds = %102
  %110 = load i8, ptr %106, align 1, !tbaa !52
  %111 = zext i8 %110 to i32
  %112 = or disjoint i32 %105, %111
  store i32 %112, ptr %0, align 8, !tbaa !49
  %113 = getelementptr inbounds nuw i8, ptr %106, i64 1
  store ptr %113, ptr %79, align 8, !tbaa !50
  br label %get_rac.exit25

114:                                              ; preds = %102
  %115 = load i32, ptr %81, align 8, !tbaa !53
  %116 = add nsw i32 %115, 1
  store i32 %116, ptr %81, align 8, !tbaa !53
  br label %get_rac.exit25

117:                                              ; preds = %84
  %118 = sub nsw i32 %93, %92
  store i32 %118, ptr %0, align 8, !tbaa !49
  %119 = load i8, ptr %87, align 1, !tbaa !52
  %120 = zext i8 %119 to i64
  %121 = getelementptr inbounds nuw [256 x i8], ptr %78, i64 0, i64 %120
  %122 = load i8, ptr %121, align 1, !tbaa !52
  store i8 %122, ptr %87, align 1, !tbaa !52
  store i32 %91, ptr %77, align 4, !tbaa !48
  %123 = icmp slt i32 %91, 256
  br i1 %123, label %124, label %get_rac.exit25

124:                                              ; preds = %117
  %125 = and i32 %90, -256
  store i32 %125, ptr %77, align 4, !tbaa !48
  %126 = load i32, ptr %0, align 8, !tbaa !49
  %127 = shl i32 %126, 8
  store i32 %127, ptr %0, align 8, !tbaa !49
  %128 = load ptr, ptr %79, align 8, !tbaa !50
  %129 = load ptr, ptr %80, align 8, !tbaa !51
  %130 = icmp ult ptr %128, %129
  br i1 %130, label %131, label %136

131:                                              ; preds = %124
  %132 = load i8, ptr %128, align 1, !tbaa !52
  %133 = zext i8 %132 to i32
  %134 = or disjoint i32 %127, %133
  store i32 %134, ptr %0, align 8, !tbaa !49
  %135 = getelementptr inbounds nuw i8, ptr %128, i64 1
  store ptr %135, ptr %79, align 8, !tbaa !50
  br label %get_rac.exit25

136:                                              ; preds = %124
  %137 = load i32, ptr %81, align 8, !tbaa !53
  %138 = add nsw i32 %137, 1
  store i32 %138, ptr %81, align 8, !tbaa !53
  br label %get_rac.exit25

get_rac.exit25:                                   ; preds = %95, %109, %114, %117, %131, %136
  %139 = phi i32 [ %100, %95 ], [ %91, %117 ], [ %103, %109 ], [ %103, %114 ], [ %125, %131 ], [ %125, %136 ]
  %.0.i24 = phi i32 [ 0, %95 ], [ 1, %117 ], [ 0, %109 ], [ 0, %114 ], [ 1, %131 ], [ 1, %136 ]
  %140 = trunc nuw nsw i64 %indvars.iv.next49 to i32
  %141 = shl nuw i32 %.0.i24, %140
  %142 = add nsw i32 %141, %.137
  %143 = icmp samesign ugt i64 %indvars.iv48, 1
  br i1 %143, label %84, label %._crit_edge, !llvm.loop !192
}